; Function Attrs: null_pointer_is_valid sspstrong uwtable
define internal i32 @dissect_e1ap_T_value(ptr noundef %0, i32 noundef %1, ptr noundef %2, ptr noundef %3, i32 noundef %4) #0 {
  %6 = getelementptr inbounds nuw i8, ptr %2, i64 16
  %7 = load ptr, ptr %6, align 8
  %8 = getelementptr inbounds nuw i8, ptr %7, i64 408
  %9 = load ptr, ptr %8, align 8
  %10 = load i32, ptr @proto_e1ap, align 4
  %11 = tail call ptr @p_get_proto_data(ptr noundef %9, ptr noundef %7, i32 noundef %10, i32 noundef 0)
  %.not.i = icmp eq ptr %11, null
  br i1 %.not.i, label %12, label %e1ap_get_private_data.exit

12:                                               ; preds = %5
  %13 = load ptr, ptr %8, align 8
  %14 = tail call noalias dereferenceable_or_null(32) ptr @wmem_alloc0(ptr noundef %13, i64 noundef 32) #7
  %15 = load ptr, ptr %8, align 8
  %16 = load i32, ptr @proto_e1ap, align 4
  tail call void @p_add_proto_data(ptr noundef %15, ptr noundef %7, i32 noundef %16, i32 noundef 0, ptr noundef %14)
  br label %e1ap_get_private_data.exit

e1ap_get_private_data.exit:                       ; preds = %5, %12
  %.0.i = phi ptr [ %11, %5 ], [ %14, %12 ]
  %17 = getelementptr inbounds nuw i8, ptr %.0.i, i64 16
  %18 = load ptr, ptr %17, align 8
  %.not = icmp eq ptr %18, null
  br i1 %.not, label %22, label %19

19:                                               ; preds = %e1ap_get_private_data.exit
  %20 = load ptr, ptr %6, align 8
  %21 = tail call i32 @call_per_oid_callback(ptr noundef nonnull %18, ptr noundef %0, ptr noundef %20, ptr noundef %3, i32 noundef %1, ptr noundef %2, i32 noundef %4)
  br label %24

22:                                               ; preds = %e1ap_get_private_data.exit
  %23 = tail call i32 @dissect_per_open_type(ptr noundef %0, i32 noundef %1, ptr noundef %2, ptr noundef %3, i32 noundef %4, ptr noundef null)
  br label %24

24:                                               ; preds = %22, %19
  %.0 = phi i32 [ %21, %19 ], [ %23, %22 ]
  ret i32 %.0
}